target datalayout = "e-m:e-p270:32:32-p271:32:32-p272:64:64-i64:64-i128:128-f80:128-n8:16:32:64-S128"
target triple = "x86_64-unknown-linux-gnu"

%"class.dpx::Writer" = type { ptr, %"struct.dpx::Header", i64, ptr }
%"struct.dpx::Header" = type <{ %"struct.dpx::GenericHeader", %"struct.dpx::IndustryHeader", i8, [3 x i8] }>
%"struct.dpx::GenericHeader" = type { i32, i32, [8 x i8], i32, i32, i32, i32, i32, [100 x i8], [24 x i8], [100 x i8], [200 x i8], [200 x i8], i32, [104 x i8], i16, i16, i32, i32, [8 x %"struct.dpx::ImageElement"], [52 x i8], i32, i32, float, float, i32, i32, [100 x i8], [24 x i8], [32 x i8], [32 x i8], [4 x i16], [2 x i32], float, float, [20 x i8] }
%"struct.dpx::ImageElement" = type { i32, i32, float, i32, float, i8, i8, i8, i8, i16, i16, i32, i32, i32, [32 x i8] }
%"struct.dpx::IndustryHeader" = type { [2 x i8], [2 x i8], [2 x i8], [6 x i8], [4 x i8], [32 x i8], i32, i32, i32, float, float, [32 x i8], [100 x i8], [56 x i8], i32, i32, i8, i8, i8, i8, float, float, float, float, float, float, float, float, float, float, [76 x i8] }
%"class.OpenImageIO_v2_6_0::basic_string_view" = type { ptr, i64 }

@.str = private unnamed_addr constant [16 x i8] c"OpenDPX library\00", align 1

; Function Attrs: mustprogress nounwind uwtable
define linkonce_odr noundef i64 @_ZNSt11char_traitsIcE6lengthEPKc(ptr noundef %__s) #1 comdat align 2 {
entry:
  %__s.addr = alloca ptr, align 8
  store ptr %__s, ptr %__s.addr, align 8
  %0 = load ptr, ptr %__s.addr, align 8
  %call = call i64 @strlen(ptr noundef %0) #5
  ret i64 %call
}

; Function Attrs: noreturn nounwind uwtable
define linkonce_odr hidden void @__clang_call_terminate(ptr noundef %0) #9 comdat {
  %2 = call ptr @__cxa_begin_catch(ptr %0) #5
  call void @_ZSt9terminatev() #13
  unreachable
}

; Function Attrs: mustprogress uwtable
define linkonce_odr hidden noundef i64 @_ZN18OpenImageIO_v2_6_017basic_string_viewIcSt11char_traitsIcEE8cestrlenEPKc(ptr noundef %chars) #6 comdat align 2 {
entry:
  %chars.addr = alloca ptr, align 8
  store ptr %chars, ptr %chars.addr, align 8
  %0 = load ptr, ptr %chars.addr, align 8
  %call = call noundef i64 @_ZNSt11char_traitsIcE6lengthEPKc(ptr noundef %0)
  ret i64 %call
}

; Function Attrs: mustprogress nounwind uwtable
define linkonce_odr hidden void @_ZN18OpenImageIO_v2_6_017basic_string_viewIcSt11char_traitsIcEEC2EPKc(ptr noundef nonnull align 8 dereferenceable(16) %this, ptr noundef %chars) unnamed_addr #1 comdat align 2 personality ptr @__gxx_personality_v0 {
entry:
  %this.addr = alloca ptr, align 8
  %chars.addr = alloca ptr, align 8
  store ptr %this, ptr %this.addr, align 8
  store ptr %chars, ptr %chars.addr, align 8
  %this1 = load ptr, ptr %this.addr, align 8
  %m_chars = getelementptr inbounds %"class.OpenImageIO_v2_6_0::basic_string_view", ptr %this1, i32 0, i32 0
  %0 = load ptr, ptr %chars.addr, align 8
  store ptr %0, ptr %m_chars, align 8
  %m_len = getelementptr inbounds %"class.OpenImageIO_v2_6_0::basic_string_view", ptr %this1, i32 0, i32 1
  %1 = load ptr, ptr %chars.addr, align 8
  %tobool = icmp ne ptr %1, null
  br i1 %tobool, label %cond.true, label %cond.false

cond.true:                                        ; preds = %entry
  %2 = load ptr, ptr %chars.addr, align 8
  %call = invoke noundef i64 @_ZN18OpenImageIO_v2_6_017basic_string_viewIcSt11char_traitsIcEE8cestrlenEPKc(ptr noundef %2)
          to label %invoke.cont unwind label %terminate.lpad

invoke.cont:                                      ; preds = %cond.true
  br label %cond.end

cond.false:                                       ; preds = %entry
  br label %cond.end

cond.end:                                         ; preds = %cond.false, %invoke.cont
  %cond = phi i64 [ %call, %invoke.cont ], [ 0, %cond.false ]
  store i64 %cond, ptr %m_len, align 8
  ret void

terminate.lpad:                                   ; preds = %cond.true
  %3 = landingpad { ptr, i32 }
          catch ptr null
  %4 = extractvalue { ptr, i32 } %3, 0
  call void @__clang_call_terminate(ptr %4) #13
  unreachable
}

; Function Attrs: mustprogress nounwind uwtable
define linkonce_odr hidden noundef i32 @_ZN3dpx9SwapBytesIjEET_RS1_(ptr noundef nonnull align 4 dereferenceable(4) %value) #1 comdat {
entry:
  %value.addr = alloca ptr, align 8
  %pe = alloca ptr, align 8
  %ps = alloca ptr, align 8
  %c = alloca i8, align 1
  %s = alloca i64, align 8
  %i = alloca i64, align 8
  store ptr %value, ptr %value.addr, align 8
  %0 = load ptr, ptr %value.addr, align 8
  store ptr %0, ptr %ps, align 8
  store i64 4, ptr %s, align 8
  %1 = load ptr, ptr %ps, align 8
  %2 = load i64, ptr %s, align 8
  %add.ptr = getelementptr inbounds i8, ptr %1, i64 %2
  %add.ptr1 = getelementptr inbounds i8, ptr %add.ptr, i64 -1
  store ptr %add.ptr1, ptr %pe, align 8
  %3 = load i64, ptr %s, align 8
  %div = udiv i64 %3, 2
  store i64 %div, ptr %i, align 8
  br label %for.cond

for.cond:                                         ; preds = %for.inc, %entry
  %4 = load i64, ptr %i, align 8
  %cmp = icmp ugt i64 %4, 0
  br i1 %cmp, label %for.body, label %for.end

for.body:                                         ; preds = %for.cond
  %5 = load ptr, ptr %ps, align 8
  %6 = load i8, ptr %5, align 1
  store i8 %6, ptr %c, align 1
  %7 = load ptr, ptr %pe, align 8
  %8 = load i8, ptr %7, align 1
  %9 = load ptr, ptr %ps, align 8
  store i8 %8, ptr %9, align 1
  %10 = load i8, ptr %c, align 1
  %11 = load ptr, ptr %pe, align 8
  store i8 %10, ptr %11, align 1
  %12 = load ptr, ptr %ps, align 8
  %incdec.ptr = getelementptr inbounds i8, ptr %12, i32 1
  store ptr %incdec.ptr, ptr %ps, align 8
  %13 = load ptr, ptr %pe, align 8
  %incdec.ptr2 = getelementptr inbounds i8, ptr %13, i32 -1
  store ptr %incdec.ptr2, ptr %pe, align 8
  br label %for.inc

for.inc:                                          ; preds = %for.body
  %14 = load i64, ptr %i, align 8
  %dec = add i64 %14, -1
  store i64 %dec, ptr %i, align 8
  br label %for.cond, !llvm.loop !4

for.end:                                          ; preds = %for.cond
  %15 = load ptr, ptr %value.addr, align 8
  %16 = load i32, ptr %15, align 4
  ret i32 %16
}

; Function Attrs: mustprogress nounwind uwtable
define linkonce_odr hidden void @_ZN3dpx13GenericHeader13SetEncryptKeyEj(ptr noundef nonnull align 4 dereferenceable(1664) %this, i32 noundef %key) #1 comdat align 2 {
entry:
  %this.addr = alloca ptr, align 8
  %key.addr = alloca i32, align 4
  store ptr %this, ptr %this.addr, align 8
  store i32 %key, ptr %key.addr, align 4
  %this1 = load ptr, ptr %this.addr, align 8
  %0 = load i32, ptr %key.addr, align 4
  %encryptKey = getelementptr inbounds %"struct.dpx::GenericHeader", ptr %this1, i32 0, i32 13
  store i32 %0, ptr %encryptKey, align 4
  ret void
}

; Function Attrs: mustprogress nounwind uwtable
define linkonce_odr hidden void @_ZN3dpx13GenericHeader12SetCopyrightEPKc(ptr noundef nonnull align 4 dereferenceable(1664) %this, ptr noundef %copy) #1 comdat align 2 {
entry:
  %this.addr = alloca ptr, align 8
  %copy.addr = alloca ptr, align 8
  %agg.tmp = alloca %"class.OpenImageIO_v2_6_0::basic_string_view", align 8
  store ptr %this, ptr %this.addr, align 8
  store ptr %copy, ptr %copy.addr, align 8
  %this1 = load ptr, ptr %this.addr, align 8
  %copyright = getelementptr inbounds %"struct.dpx::GenericHeader", ptr %this1, i32 0, i32 12
  %arraydecay = getelementptr inbounds [200 x i8], ptr %copyright, i64 0, i64 0
  %0 = load ptr, ptr %copy.addr, align 8
  call void @_ZN18OpenImageIO_v2_6_017basic_string_viewIcSt11char_traitsIcEEC2EPKc(ptr noundef nonnull align 8 dereferenceable(16) %agg.tmp, ptr noundef %0) #5
  %call = call noundef ptr @_ZN18OpenImageIO_v2_6_07Strutil11safe_strcpyEPcNS_17basic_string_viewIcSt11char_traitsIcEEEm(ptr noundef %arraydecay, ptr noundef %agg.tmp, i64 noundef 200) #5
  ret void
}

; Function Attrs: mustprogress nounwind uwtable
define linkonce_odr hidden void @_ZN3dpx13GenericHeader10SetProjectEPKc(ptr noundef nonnull align 4 dereferenceable(1664) %this, ptr noundef %prj) #1 comdat align 2 {
entry:
  %this.addr = alloca ptr, align 8
  %prj.addr = alloca ptr, align 8
  %agg.tmp = alloca %"class.OpenImageIO_v2_6_0::basic_string_view", align 8
  store ptr %this, ptr %this.addr, align 8
  store ptr %prj, ptr %prj.addr, align 8
  %this1 = load ptr, ptr %this.addr, align 8
  %project = getelementptr inbounds %"struct.dpx::GenericHeader", ptr %this1, i32 0, i32 11
  %arraydecay = getelementptr inbounds [200 x i8], ptr %project, i64 0, i64 0
  %0 = load ptr, ptr %prj.addr, align 8
  call void @_ZN18OpenImageIO_v2_6_017basic_string_viewIcSt11char_traitsIcEEC2EPKc(ptr noundef nonnull align 8 dereferenceable(16) %agg.tmp, ptr noundef %0) #5
  %call = call noundef ptr @_ZN18OpenImageIO_v2_6_07Strutil11safe_strcpyEPcNS_17basic_string_viewIcSt11char_traitsIcEEEm(ptr noundef %arraydecay, ptr noundef %agg.tmp, i64 noundef 200) #5
  ret void
}

; Function Attrs: mustprogress nounwind uwtable
define linkonce_odr hidden void @_ZN3dpx13GenericHeader10SetCreatorEPKc(ptr noundef nonnull align 4 dereferenceable(1664) %this, ptr noundef %creat) #1 comdat align 2 {
entry:
  %this.addr = alloca ptr, align 8
  %creat.addr = alloca ptr, align 8
  %agg.tmp = alloca %"class.OpenImageIO_v2_6_0::basic_string_view", align 8
  store ptr %this, ptr %this.addr, align 8
  store ptr %creat, ptr %creat.addr, align 8
  %this1 = load ptr, ptr %this.addr, align 8
  %creator = getelementptr inbounds %"struct.dpx::GenericHeader", ptr %this1, i32 0, i32 10
  %arraydecay = getelementptr inbounds [100 x i8], ptr %creator, i64 0, i64 0
  %0 = load ptr, ptr %creat.addr, align 8
  call void @_ZN18OpenImageIO_v2_6_017basic_string_viewIcSt11char_traitsIcEEC2EPKc(ptr noundef nonnull align 8 dereferenceable(16) %agg.tmp, ptr noundef %0) #5
  %call = call noundef ptr @_ZN18OpenImageIO_v2_6_07Strutil11safe_strcpyEPcNS_17basic_string_viewIcSt11char_traitsIcEEEm(ptr noundef %arraydecay, ptr noundef %agg.tmp, i64 noundef 100) #5
  ret void
}

; Function Attrs: mustprogress nounwind uwtable
define linkonce_odr hidden void @_ZN3dpx13GenericHeader19SetCreationTimeDateEPKc(ptr noundef nonnull align 4 dereferenceable(1664) %this, ptr noundef %ct) #1 comdat align 2 {
entry:
  %this.addr = alloca ptr, align 8
  %ct.addr = alloca ptr, align 8
  %agg.tmp = alloca %"class.OpenImageIO_v2_6_0::basic_string_view", align 8
  store ptr %this, ptr %this.addr, align 8
  store ptr %ct, ptr %ct.addr, align 8
  %this1 = load ptr, ptr %this.addr, align 8
  %creationTimeDate = getelementptr inbounds %"struct.dpx::GenericHeader", ptr %this1, i32 0, i32 9
  %arraydecay = getelementptr inbounds [24 x i8], ptr %creationTimeDate, i64 0, i64 0
  %0 = load ptr, ptr %ct.addr, align 8
  call void @_ZN18OpenImageIO_v2_6_017basic_string_viewIcSt11char_traitsIcEEC2EPKc(ptr noundef nonnull align 8 dereferenceable(16) %agg.tmp, ptr noundef %0) #5
  %call = call noundef ptr @_ZN18OpenImageIO_v2_6_07Strutil11safe_strcpyEPcNS_17basic_string_viewIcSt11char_traitsIcEEEm(ptr noundef %arraydecay, ptr noundef %agg.tmp, i64 noundef 24) #5
  ret void
}

; Function Attrs: mustprogress nounwind uwtable
define linkonce_odr hidden void @_ZN3dpx13GenericHeader11SetFileNameEPKc(ptr noundef nonnull align 4 dereferenceable(1664) %this, ptr noundef %fn) #1 comdat align 2 {
entry:
  %this.addr = alloca ptr, align 8
  %fn.addr = alloca ptr, align 8
  %agg.tmp = alloca %"class.OpenImageIO_v2_6_0::basic_string_view", align 8
  store ptr %this, ptr %this.addr, align 8
  store ptr %fn, ptr %fn.addr, align 8
  %this1 = load ptr, ptr %this.addr, align 8
  %fileName = getelementptr inbounds %"struct.dpx::GenericHeader", ptr %this1, i32 0, i32 8
  %arraydecay = getelementptr inbounds [100 x i8], ptr %fileName, i64 0, i64 0
  %0 = load ptr, ptr %fn.addr, align 8
  call void @_ZN18OpenImageIO_v2_6_017basic_string_viewIcSt11char_traitsIcEEC2EPKc(ptr noundef nonnull align 8 dereferenceable(16) %agg.tmp, ptr noundef %0) #5
  %call = call noundef ptr @_ZN18OpenImageIO_v2_6_07Strutil11safe_strcpyEPcNS_17basic_string_viewIcSt11char_traitsIcEEEm(ptr noundef %arraydecay, ptr noundef %agg.tmp, i64 noundef 100) #5
  ret void
}

; Function Attrs: mustprogress uwtable
define hidden void @_ZN3dpx6Writer11SetFileInfoEPKcS2_S2_S2_S2_jb(ptr noundef nonnull align 8 dereferenceable(2080) %this, ptr noundef %fileName, ptr noundef %creationTimeDate, ptr noundef %creator, ptr noundef %project, ptr noundef %copyright, i32 noundef %encryptKey, i1 noundef zeroext %swapEndian) #6 align 2 {
entry:
  %this.addr = alloca ptr, align 8
  %fileName.addr = alloca ptr, align 8
  %creationTimeDate.addr = alloca ptr, align 8
  %creator.addr = alloca ptr, align 8
  %project.addr = alloca ptr, align 8
  %copyright.addr = alloca ptr, align 8
  %encryptKey.addr = alloca i32, align 4
  %swapEndian.addr = alloca i8, align 1
  %seconds = alloca i64, align 8
  store ptr %this, ptr %this.addr, align 8
  store ptr %fileName, ptr %fileName.addr, align 8
  store ptr %creationTimeDate, ptr %creationTimeDate.addr, align 8
  store ptr %creator, ptr %creator.addr, align 8
  store ptr %project, ptr %project.addr, align 8
  store ptr %copyright, ptr %copyright.addr, align 8
  store i32 %encryptKey, ptr %encryptKey.addr, align 4
  %frombool = zext i1 %swapEndian to i8
  store i8 %frombool, ptr %swapEndian.addr, align 1
  %this1 = load ptr, ptr %this.addr, align 8
  %0 = load ptr, ptr %fileName.addr, align 8
  %tobool = icmp ne ptr %0, null
  br i1 %tobool, label %if.then, label %if.end

if.then:                                          ; preds = %entry
  %header = getelementptr inbounds %"class.dpx::Writer", ptr %this1, i32 0, i32 1
  %1 = load ptr, ptr %fileName.addr, align 8
  call void @_ZN3dpx13GenericHeader11SetFileNameEPKc(ptr noundef nonnull align 4 dereferenceable(1664) %header, ptr noundef %1)
  br label %if.end

if.end:                                           ; preds = %if.then, %entry
  %2 = load ptr, ptr %creationTimeDate.addr, align 8
  %tobool2 = icmp ne ptr %2, null
  br i1 %tobool2, label %if.then3, label %if.else

if.then3:                                         ; preds = %if.end
  %header4 = getelementptr inbounds %"class.dpx::Writer", ptr %this1, i32 0, i32 1
  %3 = load ptr, ptr %creationTimeDate.addr, align 8
  call void @_ZN3dpx13GenericHeader19SetCreationTimeDateEPKc(ptr noundef nonnull align 4 dereferenceable(1664) %header4, ptr noundef %3)
  br label %if.end6

if.else:                                          ; preds = %if.end
  %call = call i64 @time(ptr noundef null) #5
  store i64 %call, ptr %seconds, align 8
  %header5 = getelementptr inbounds %"class.dpx::Writer", ptr %this1, i32 0, i32 1
  %4 = load i64, ptr %seconds, align 8
  call void @_ZN3dpx13GenericHeader19SetCreationTimeDateEl(ptr noundef nonnull align 4 dereferenceable(1664) %header5, i64 noundef %4)
  br label %if.end6

if.end6:                                          ; preds = %if.else, %if.then3
  %5 = load ptr, ptr %creator.addr, align 8
  %tobool7 = icmp ne ptr %5, null
  br i1 %tobool7, label %if.then8, label %if.else10

if.then8:                                         ; preds = %if.end6
  %header9 = getelementptr inbounds %"class.dpx::Writer", ptr %this1, i32 0, i32 1
  %6 = load ptr, ptr %creator.addr, align 8
  call void @_ZN3dpx13GenericHeader10SetCreatorEPKc(ptr noundef nonnull align 4 dereferenceable(1664) %header9, ptr noundef %6)
  br label %if.end12

if.else10:                                        ; preds = %if.end6
  %header11 = getelementptr inbounds %"class.dpx::Writer", ptr %this1, i32 0, i32 1
  call void @_ZN3dpx13GenericHeader10SetCreatorEPKc(ptr noundef nonnull align 4 dereferenceable(1664) %header11, ptr noundef @.str)
  br label %if.end12

if.end12:                                         ; preds = %if.else10, %if.then8
  %7 = load ptr, ptr %project.addr, align 8
  %tobool13 = icmp ne ptr %7, null
  br i1 %tobool13, label %if.then14, label %if.end16

if.then14:                                        ; preds = %if.end12
  %header15 = getelementptr inbounds %"class.dpx::Writer", ptr %this1, i32 0, i32 1
  %8 = load ptr, ptr %project.addr, align 8
  call void @_ZN3dpx13GenericHeader10SetProjectEPKc(ptr noundef nonnull align 4 dereferenceable(1664) %header15, ptr noundef %8)
  br label %if.end16

if.end16:                                         ; preds = %if.then14, %if.end12
  %9 = load ptr, ptr %copyright.addr, align 8
  %tobool17 = icmp ne ptr %9, null
  br i1 %tobool17, label %if.then18, label %if.end20

if.then18:                                        ; preds = %if.end16
  %header19 = getelementptr inbounds %"class.dpx::Writer", ptr %this1, i32 0, i32 1
  %10 = load ptr, ptr %copyright.addr, align 8
  call void @_ZN3dpx13GenericHeader12SetCopyrightEPKc(ptr noundef nonnull align 4 dereferenceable(1664) %header19, ptr noundef %10)
  br label %if.end20

if.end20:                                         ; preds = %if.then18, %if.end16
  %header21 = getelementptr inbounds %"class.dpx::Writer", ptr %this1, i32 0, i32 1
  %11 = load i32, ptr %encryptKey.addr, align 4
  call void @_ZN3dpx13GenericHeader13SetEncryptKeyEj(ptr noundef nonnull align 4 dereferenceable(1664) %header21, i32 noundef %11)
  %12 = load i8, ptr %swapEndian.addr, align 1
  %tobool22 = trunc i8 %12 to i1
  br i1 %tobool22, label %if.then23, label %if.end28

if.then23:                                        ; preds = %if.end20
  %header24 = getelementptr inbounds %"class.dpx::Writer", ptr %this1, i32 0, i32 1
  %magicNumber = getelementptr inbounds %"struct.dpx::GenericHeader", ptr %header24, i32 0, i32 0
  %call25 = call noundef i32 @_ZN3dpx9SwapBytesIjEET_RS1_(ptr noundef nonnull align 4 dereferenceable(4) %magicNumber)
  %header26 = getelementptr inbounds %"class.dpx::Writer", ptr %this1, i32 0, i32 1
  %magicNumber27 = getelementptr inbounds %"struct.dpx::GenericHeader", ptr %header26, i32 0, i32 0
  store i32 %call25, ptr %magicNumber27, align 8
  br label %if.end28

if.end28:                                         ; preds = %if.then23, %if.end20
  ret void
}