; Function Attrs: mustprogress uwtable
define hidden void @_ZN3dpx6Writer11SetFileInfoEPKcS2_S2_S2_S2_jb(ptr noundef nonnull align 8 dereferenceable(2080) %this, ptr noundef %fileName, ptr noundef %creationTimeDate, ptr noundef %creator, ptr noundef %project, ptr noundef %copyright, i32 noundef %encryptKey, i1 noundef zeroext %swapEndian) local_unnamed_addr #5 align 2 personality ptr @__gxx_personality_v0 {
entry:
  %agg.tmp.i34 = alloca %"class.OpenImageIO_v2_6_0::basic_string_view", align 8
  %agg.tmp.i27 = alloca %"class.OpenImageIO_v2_6_0::basic_string_view", align 8
  %agg.tmp.i20 = alloca %"class.OpenImageIO_v2_6_0::basic_string_view", align 8
  %agg.tmp.i13 = alloca %"class.OpenImageIO_v2_6_0::basic_string_view", align 8
  %agg.tmp.i6 = alloca %"class.OpenImageIO_v2_6_0::basic_string_view", align 8
  %agg.tmp.i = alloca %"class.OpenImageIO_v2_6_0::basic_string_view", align 8
  %tobool.not = icmp eq ptr %fileName, null
  br i1 %tobool.not, label %if.end, label %_ZN3dpx13GenericHeader11SetFileNameEPKc.exit

_ZN3dpx13GenericHeader11SetFileNameEPKc.exit:     ; preds = %entry
  call void @llvm.lifetime.start.p0(i64 16, ptr nonnull %agg.tmp.i)
  store ptr %fileName, ptr %agg.tmp.i, align 8
  %call.i.i.i.i = tail call noundef i64 @strlen(ptr noundef nonnull dereferenceable(1) %fileName) #19
  %fileName.i = getelementptr inbounds i8, ptr %this, i64 44
  %m_len.i.i = getelementptr inbounds i8, ptr %agg.tmp.i, i64 8
  store i64 %call.i.i.i.i, ptr %m_len.i.i, align 8
  %call.i = call noundef ptr @_ZN18OpenImageIO_v2_6_07Strutil11safe_strcpyEPcNS_17basic_string_viewIcSt11char_traitsIcEEEm(ptr noundef nonnull %fileName.i, ptr noundef nonnull %agg.tmp.i, i64 noundef 100) #19
  call void @llvm.lifetime.end.p0(i64 16, ptr nonnull %agg.tmp.i)
  br label %if.end

if.end:                                           ; preds = %_ZN3dpx13GenericHeader11SetFileNameEPKc.exit, %entry
  %tobool2.not = icmp eq ptr %creationTimeDate, null
  br i1 %tobool2.not, label %if.else, label %_ZN3dpx13GenericHeader19SetCreationTimeDateEPKc.exit

_ZN3dpx13GenericHeader19SetCreationTimeDateEPKc.exit: ; preds = %if.end
  call void @llvm.lifetime.start.p0(i64 16, ptr nonnull %agg.tmp.i6)
  store ptr %creationTimeDate, ptr %agg.tmp.i6, align 8
  %call.i.i.i.i9 = call noundef i64 @strlen(ptr noundef nonnull dereferenceable(1) %creationTimeDate) #19
  %creationTimeDate.i = getelementptr inbounds i8, ptr %this, i64 144
  %m_len.i.i11 = getelementptr inbounds i8, ptr %agg.tmp.i6, i64 8
  store i64 %call.i.i.i.i9, ptr %m_len.i.i11, align 8
  %call.i12 = call noundef ptr @_ZN18OpenImageIO_v2_6_07Strutil11safe_strcpyEPcNS_17basic_string_viewIcSt11char_traitsIcEEEm(ptr noundef nonnull %creationTimeDate.i, ptr noundef nonnull %agg.tmp.i6, i64 noundef 24) #19
  call void @llvm.lifetime.end.p0(i64 16, ptr nonnull %agg.tmp.i6)
  br label %if.end6

if.else:                                          ; preds = %if.end
  %call = call i64 @time(ptr noundef null) #19
  %header5 = getelementptr inbounds i8, ptr %this, i64 8
  call void @_ZN3dpx13GenericHeader19SetCreationTimeDateEl(ptr noundef nonnull align 4 dereferenceable(1664) %header5, i64 noundef %call)
  br label %if.end6

if.end6:                                          ; preds = %if.else, %_ZN3dpx13GenericHeader19SetCreationTimeDateEPKc.exit
  %tobool7.not = icmp eq ptr %creator, null
  br i1 %tobool7.not, label %if.else10, label %_ZN3dpx13GenericHeader10SetCreatorEPKc.exit

_ZN3dpx13GenericHeader10SetCreatorEPKc.exit:      ; preds = %if.end6
  call void @llvm.lifetime.start.p0(i64 16, ptr nonnull %agg.tmp.i13)
  store ptr %creator, ptr %agg.tmp.i13, align 8
  %call.i.i.i.i16 = call noundef i64 @strlen(ptr noundef nonnull dereferenceable(1) %creator) #19
  %creator.i = getelementptr inbounds i8, ptr %this, i64 168
  %m_len.i.i18 = getelementptr inbounds i8, ptr %agg.tmp.i13, i64 8
  store i64 %call.i.i.i.i16, ptr %m_len.i.i18, align 8
  %call.i19 = call noundef ptr @_ZN18OpenImageIO_v2_6_07Strutil11safe_strcpyEPcNS_17basic_string_viewIcSt11char_traitsIcEEEm(ptr noundef nonnull %creator.i, ptr noundef nonnull %agg.tmp.i13, i64 noundef 100) #19
  call void @llvm.lifetime.end.p0(i64 16, ptr nonnull %agg.tmp.i13)
  br label %if.end12

if.else10:                                        ; preds = %if.end6
  call void @llvm.lifetime.start.p0(i64 16, ptr nonnull %agg.tmp.i20)
  store ptr @.str, ptr %agg.tmp.i20, align 8
  %creator.i24 = getelementptr inbounds i8, ptr %this, i64 168
  %m_len.i.i25 = getelementptr inbounds i8, ptr %agg.tmp.i20, i64 8
  store i64 15, ptr %m_len.i.i25, align 8
  %call.i26 = call noundef ptr @_ZN18OpenImageIO_v2_6_07Strutil11safe_strcpyEPcNS_17basic_string_viewIcSt11char_traitsIcEEEm(ptr noundef nonnull %creator.i24, ptr noundef nonnull %agg.tmp.i20, i64 noundef 100) #19
  call void @llvm.lifetime.end.p0(i64 16, ptr nonnull %agg.tmp.i20)
  br label %if.end12

if.end12:                                         ; preds = %if.else10, %_ZN3dpx13GenericHeader10SetCreatorEPKc.exit
  %tobool13.not = icmp eq ptr %project, null
  br i1 %tobool13.not, label %if.end16, label %_ZN3dpx13GenericHeader10SetProjectEPKc.exit

_ZN3dpx13GenericHeader10SetProjectEPKc.exit:      ; preds = %if.end12
  call void @llvm.lifetime.start.p0(i64 16, ptr nonnull %agg.tmp.i27)
  store ptr %project, ptr %agg.tmp.i27, align 8
  %call.i.i.i.i30 = call noundef i64 @strlen(ptr noundef nonnull dereferenceable(1) %project) #19
  %project.i = getelementptr inbounds i8, ptr %this, i64 268
  %m_len.i.i32 = getelementptr inbounds i8, ptr %agg.tmp.i27, i64 8
  store i64 %call.i.i.i.i30, ptr %m_len.i.i32, align 8
  %call.i33 = call noundef ptr @_ZN18OpenImageIO_v2_6_07Strutil11safe_strcpyEPcNS_17basic_string_viewIcSt11char_traitsIcEEEm(ptr noundef nonnull %project.i, ptr noundef nonnull %agg.tmp.i27, i64 noundef 200) #19
  call void @llvm.lifetime.end.p0(i64 16, ptr nonnull %agg.tmp.i27)
  br label %if.end16

if.end16:                                         ; preds = %_ZN3dpx13GenericHeader10SetProjectEPKc.exit, %if.end12
  %tobool17.not = icmp eq ptr %copyright, null
  br i1 %tobool17.not, label %if.end20, label %_ZN3dpx13GenericHeader12SetCopyrightEPKc.exit

_ZN3dpx13GenericHeader12SetCopyrightEPKc.exit:    ; preds = %if.end16
  call void @llvm.lifetime.start.p0(i64 16, ptr nonnull %agg.tmp.i34)
  store ptr %copyright, ptr %agg.tmp.i34, align 8
  %call.i.i.i.i37 = call noundef i64 @strlen(ptr noundef nonnull dereferenceable(1) %copyright) #19
  %copyright.i = getelementptr inbounds i8, ptr %this, i64 468
  %m_len.i.i39 = getelementptr inbounds i8, ptr %agg.tmp.i34, i64 8
  store i64 %call.i.i.i.i37, ptr %m_len.i.i39, align 8
  %call.i40 = call noundef ptr @_ZN18OpenImageIO_v2_6_07Strutil11safe_strcpyEPcNS_17basic_string_viewIcSt11char_traitsIcEEEm(ptr noundef nonnull %copyright.i, ptr noundef nonnull %agg.tmp.i34, i64 noundef 200) #19
  call void @llvm.lifetime.end.p0(i64 16, ptr nonnull %agg.tmp.i34)
  br label %if.end20

if.end20:                                         ; preds = %_ZN3dpx13GenericHeader12SetCopyrightEPKc.exit, %if.end16
  %encryptKey.i = getelementptr inbounds i8, ptr %this, i64 668
  store i32 %encryptKey, ptr %encryptKey.i, align 4
  br i1 %swapEndian, label %if.then23, label %if.end28

if.then23:                                        ; preds = %if.end20
  %header21 = getelementptr inbounds i8, ptr %this, i64 8
  %add.ptr1.i = getelementptr inbounds i8, ptr %this, i64 11
  br label %for.body.i

for.body.i:                                       ; preds = %for.body.i, %if.then23
  %i.011.i = phi i64 [ 2, %if.then23 ], [ %dec.i, %for.body.i ]
  %pe.010.i = phi ptr [ %add.ptr1.i, %if.then23 ], [ %incdec.ptr2.i, %for.body.i ]
  %ps.09.i = phi ptr [ %header21, %if.then23 ], [ %incdec.ptr.i, %for.body.i ]
  %0 = load i8, ptr %ps.09.i, align 1
  %1 = load i8, ptr %pe.010.i, align 1
  store i8 %1, ptr %ps.09.i, align 1
  store i8 %0, ptr %pe.010.i, align 1
  %incdec.ptr.i = getelementptr inbounds i8, ptr %ps.09.i, i64 1
  %incdec.ptr2.i = getelementptr inbounds i8, ptr %pe.010.i, i64 -1
  %dec.i = add nsw i64 %i.011.i, -1
  %cmp.not.i = icmp eq i64 %dec.i, 0
  br i1 %cmp.not.i, label %if.end28, label %for.body.i, !llvm.loop !4

if.end28:                                         ; preds = %for.body.i, %if.end20
  ret void
}